target datalayout = "e-m:e-p270:32:32-p271:32:32-p272:64:64-i64:64-i128:128-f80:128-n8:16:32:64-S128"
target triple = "x86_64-pc-linux-gnu"

%class.ZStatValue = type { ptr, ptr, i32, i32 }
%class.ZStatIterableValue.2 = type { %class.ZStatValue, ptr }

@_ZN10ZStatValue11_cpu_offsetE = hidden global i32 0, align 4
@.str.8 = private unnamed_addr constant [10 x i8] c"Unsampled\00", align 1
@_ZN18ZStatIterableValueI21ZStatUnsampledCounterE6_countE = linkonce_odr hidden global i32 0, comdat, align 4
@_ZN18ZStatIterableValueI21ZStatUnsampledCounterE6_firstE = linkonce_odr hidden global ptr null, comdat, align 8

; Function Attrs: mustprogress nounwind uwtable
define linkonce_odr hidden noundef ptr @_ZNK18ZStatIterableValueI21ZStatUnsampledCounterE6insertEv(ptr noundef nonnull align 8 dereferenceable(32) %0) #1 comdat align 2 {
  %2 = alloca ptr, align 8
  %3 = alloca ptr, align 8
  store ptr %0, ptr %2, align 8
  %4 = load ptr, ptr %2, align 8
  %5 = load ptr, ptr @_ZN18ZStatIterableValueI21ZStatUnsampledCounterE6_firstE, align 8
  store ptr %5, ptr %3, align 8
  store ptr %4, ptr @_ZN18ZStatIterableValueI21ZStatUnsampledCounterE6_firstE, align 8
  %6 = load ptr, ptr %3, align 8
  ret ptr %6
}

; Function Attrs: mustprogress nounwind uwtable
define hidden void @_ZN10ZStatValueC2EPKcS1_jj(ptr noundef nonnull align 8 dereferenceable(24) %0, ptr noundef %1, ptr noundef %2, i32 noundef %3, i32 noundef %4) unnamed_addr #1 align 2 {
  %6 = alloca ptr, align 8
  %7 = alloca ptr, align 8
  %8 = alloca ptr, align 8
  %9 = alloca i32, align 4
  %10 = alloca i32, align 4
  store ptr %0, ptr %6, align 8
  store ptr %1, ptr %7, align 8
  store ptr %2, ptr %8, align 8
  store i32 %3, ptr %9, align 4
  store i32 %4, ptr %10, align 4
  %11 = load ptr, ptr %6, align 8
  %12 = getelementptr inbounds %class.ZStatValue, ptr %11, i32 0, i32 0
  %13 = load ptr, ptr %7, align 8
  store ptr %13, ptr %12, align 8
  %14 = getelementptr inbounds %class.ZStatValue, ptr %11, i32 0, i32 1
  %15 = load ptr, ptr %8, align 8
  store ptr %15, ptr %14, align 8
  %16 = getelementptr inbounds %class.ZStatValue, ptr %11, i32 0, i32 2
  %17 = load i32, ptr %9, align 4
  store i32 %17, ptr %16, align 8
  %18 = getelementptr inbounds %class.ZStatValue, ptr %11, i32 0, i32 3
  %19 = load i32, ptr @_ZN10ZStatValue11_cpu_offsetE, align 4
  store i32 %19, ptr %18, align 4
  %20 = load i32, ptr %10, align 4
  %21 = load i32, ptr @_ZN10ZStatValue11_cpu_offsetE, align 4
  %22 = add i32 %21, %20
  store i32 %22, ptr @_ZN10ZStatValue11_cpu_offsetE, align 4
  ret void
}

; Function Attrs: mustprogress nounwind uwtable
define linkonce_odr hidden void @_ZN18ZStatIterableValueI21ZStatUnsampledCounterEC2EPKcS3_j(ptr noundef nonnull align 8 dereferenceable(32) %0, ptr noundef %1, ptr noundef %2, i32 noundef %3) unnamed_addr #1 comdat align 2 {
  %5 = alloca ptr, align 8
  %6 = alloca ptr, align 8
  %7 = alloca ptr, align 8
  %8 = alloca i32, align 4
  store ptr %0, ptr %5, align 8
  store ptr %1, ptr %6, align 8
  store ptr %2, ptr %7, align 8
  store i32 %3, ptr %8, align 4
  %9 = load ptr, ptr %5, align 8
  %10 = load ptr, ptr %6, align 8
  %11 = load ptr, ptr %7, align 8
  %12 = load i32, ptr @_ZN18ZStatIterableValueI21ZStatUnsampledCounterE6_countE, align 4
  %13 = add i32 %12, 1
  store i32 %13, ptr @_ZN18ZStatIterableValueI21ZStatUnsampledCounterE6_countE, align 4
  %14 = load i32, ptr %8, align 4
  call void @_ZN10ZStatValueC2EPKcS1_jj(ptr noundef nonnull align 8 dereferenceable(24) %9, ptr noundef %10, ptr noundef %11, i32 noundef %12, i32 noundef %14)
  %15 = getelementptr inbounds %class.ZStatIterableValue.2, ptr %9, i32 0, i32 1
  %16 = call noundef ptr @_ZNK18ZStatIterableValueI21ZStatUnsampledCounterE6insertEv(ptr noundef nonnull align 8 dereferenceable(32) %9)
  store ptr %16, ptr %15, align 8
  ret void
}

; Function Attrs: mustprogress nounwind uwtable
define hidden void @_ZN21ZStatUnsampledCounterC2EPKc(ptr noundef nonnull align 8 dereferenceable(32) %0, ptr noundef %1) unnamed_addr #1 align 2 {
  %3 = alloca ptr, align 8
  %4 = alloca ptr, align 8
  store ptr %0, ptr %3, align 8
  store ptr %1, ptr %4, align 8
  %5 = load ptr, ptr %3, align 8
  %6 = load ptr, ptr %4, align 8
  call void @_ZN18ZStatIterableValueI21ZStatUnsampledCounterEC2EPKcS3_j(ptr noundef nonnull align 8 dereferenceable(32) %5, ptr noundef @.str.8, ptr noundef %6, i32 noundef 8)
  ret void
}