; Function Attrs: mustprogress nofree norecurse nosync nounwind willreturn memory(readwrite, argmem: write, inaccessiblemem: none) uwtable
define hidden void @_ZN21ZStatUnsampledCounterC2EPKc(ptr noundef nonnull align 8 dereferenceable(32) %0, ptr noundef %1) unnamed_addr #3 align 2 {
  %3 = load i32, ptr @_ZN18ZStatIterableValueI21ZStatUnsampledCounterE6_countE, align 4
  %4 = add i32 %3, 1
  store i32 %4, ptr @_ZN18ZStatIterableValueI21ZStatUnsampledCounterE6_countE, align 4
  store ptr @.str.8, ptr %0, align 8
  %5 = getelementptr inbounds i8, ptr %0, i64 8
  store ptr %1, ptr %5, align 8
  %6 = getelementptr inbounds i8, ptr %0, i64 16
  store i32 %3, ptr %6, align 8
  %7 = getelementptr inbounds i8, ptr %0, i64 20
  %8 = load i32, ptr @_ZN10ZStatValue11_cpu_offsetE, align 4
  store i32 %8, ptr %7, align 4
  %9 = add i32 %8, 8
  store i32 %9, ptr @_ZN10ZStatValue11_cpu_offsetE, align 4
  %10 = getelementptr inbounds i8, ptr %0, i64 24
  %11 = load ptr, ptr @_ZN18ZStatIterableValueI21ZStatUnsampledCounterE6_firstE, align 8
  store ptr %0, ptr @_ZN18ZStatIterableValueI21ZStatUnsampledCounterE6_firstE, align 8
  store ptr %11, ptr %10, align 8
  ret void
}